target datalayout = "e-m:e-p270:32:32-p271:32:32-p272:64:64-i64:64-i128:128-f80:128-n8:16:32:64-S128"
target triple = "x86_64-pc-linux-gnu"

%class.FullMethodName = type { ptr, ptr, ptr }
%class.MemStatEntry = type { %class.FullMethodName, i8, double, i32, ptr, i64, i64, i64, i64, i32, ptr }

; Function Attrs: mustprogress nounwind uwtable
define linkonce_odr hidden noundef i32 @_ZNK12MemStatEntry15compare_by_sizeEPKS_(ptr noundef nonnull align 8 dereferenceable(104) %0, ptr noundef %1) #1 comdat align 2 {
  %3 = alloca ptr, align 8
  %4 = alloca ptr, align 8
  %5 = alloca i64, align 8
  %6 = alloca i64, align 8
  store ptr %0, ptr %3, align 8
  store ptr %1, ptr %4, align 8
  %7 = load ptr, ptr %3, align 8
  %8 = load ptr, ptr %4, align 8
  %9 = getelementptr inbounds %class.MemStatEntry, ptr %8, i32 0, i32 6
  %10 = load i64, ptr %9, align 8
  store i64 %10, ptr %5, align 8
  %11 = getelementptr inbounds %class.MemStatEntry, ptr %7, i32 0, i32 6
  %12 = load i64, ptr %11, align 8
  store i64 %12, ptr %6, align 8
  %13 = load i64, ptr %5, align 8
  %14 = load i64, ptr %6, align 8
  %15 = icmp ult i64 %13, %14
  br i1 %15, label %16, label %17

16:                                               ; preds = %2
  br label %22

17:                                               ; preds = %2
  %18 = load i64, ptr %5, align 8
  %19 = load i64, ptr %6, align 8
  %20 = icmp eq i64 %18, %19
  %21 = select i1 %20, i32 0, i32 1
  br label %22

22:                                               ; preds = %17, %16
  %23 = phi i32 [ -1, %16 ], [ %21, %17 ]
  ret i32 %23
}

; Function Attrs: mustprogress nounwind uwtable
define internal noundef i64 @_ZL20diff_entries_by_sizePK12MemStatEntryS1_(ptr noundef %0, ptr noundef %1) #1 {
  %3 = alloca ptr, align 8
  %4 = alloca ptr, align 8
  store ptr %0, ptr %3, align 8
  store ptr %1, ptr %4, align 8
  %5 = load ptr, ptr %3, align 8
  %6 = load ptr, ptr %4, align 8
  %7 = call noundef i32 @_ZNK12MemStatEntry15compare_by_sizeEPKS_(ptr noundef nonnull align 8 dereferenceable(104) %5, ptr noundef %6)
  %8 = sext i32 %7 to i64
  ret i64 %8
}