; Function Attrs: mustprogress nofree norecurse nosync nounwind willreturn memory(argmem: read) uwtable
define internal noundef range(i64 -2147483648, 2147483648) i64 @_ZL20diff_entries_by_sizePK12MemStatEntryS1_(ptr nocapture noundef readonly %0, ptr nocapture noundef readonly %1) #1 {
  %3 = getelementptr inbounds i8, ptr %1, i64 64
  %4 = load i64, ptr %3, align 8
  %5 = getelementptr inbounds i8, ptr %0, i64 64
  %6 = load i64, ptr %5, align 8
  %7 = icmp ult i64 %4, %6
  %8 = icmp ne i64 %4, %6
  %9 = zext i1 %8 to i64
  %10 = select i1 %7, i64 -1, i64 %9
  ret i64 %10
}